; Function Attrs: mustprogress nounwind uwtable
define internal void @_ZN5boost6detail17sp_counted_impl_pIN8QuantLib12_GLOBAL__N_116FdmSchemeWrapperINS2_19ImplicitEulerSchemeEEEE7disposeEv(ptr nocapture noundef nonnull readonly align 8 dereferenceable(24) %this) unnamed_addr #10 align 2 {
entry:
  %px_ = getelementptr inbounds nuw i8, ptr %this, i64 16
  %0 = load ptr, ptr %px_, align 8, !tbaa !338
  %isnull.i = icmp eq ptr %0, null
  br i1 %isnull.i, label %_ZN5boost14checked_deleteIN8QuantLib12_GLOBAL__N_116FdmSchemeWrapperINS1_19ImplicitEulerSchemeEEEEEvPT_.exit, label %delete.notnull.i

delete.notnull.i:                                 ; preds = %entry
  %vtable.i = load ptr, ptr %0, align 8, !tbaa !33
  %vfn.i = getelementptr inbounds i8, ptr %vtable.i, i64 8
  %1 = load ptr, ptr %vfn.i, align 8
  tail call void %1(ptr noundef nonnull align 8 dereferenceable(16) %0) #29
  br label %_ZN5boost14checked_deleteIN8QuantLib12_GLOBAL__N_116FdmSchemeWrapperINS1_19ImplicitEulerSchemeEEEEEvPT_.exit

_ZN5boost14checked_deleteIN8QuantLib12_GLOBAL__N_116FdmSchemeWrapperINS1_19ImplicitEulerSchemeEEEEEvPT_.exit: ; preds = %entry, %delete.notnull.i
  ret void
}